target datalayout = "e-m:e-p270:32:32-p271:32:32-p272:64:64-i64:64-i128:128-f80:128-n8:16:32:64-S128"
target triple = "x86_64-pc-linux-gnu"

%struct._GList = type { ptr, ptr, ptr }

; Function Attrs: nounwind uwtable
define dso_local void @set_column_width_fixed(ptr noundef %0, i32 noundef %1, i32 noundef %2) #0 {
  %4 = alloca ptr, align 8
  %5 = alloca i32, align 4
  %6 = alloca i32, align 4
  %7 = alloca ptr, align 8
  %8 = alloca ptr, align 8
  %9 = alloca i32, align 4
  store ptr %0, ptr %4, align 8
  store i32 %1, ptr %5, align 4
  store i32 %2, ptr %6, align 4
  call void @llvm.lifetime.start.p0(i64 8, ptr %7) #11
  call void @llvm.lifetime.start.p0(i64 8, ptr %8) #11
  %10 = load ptr, ptr %4, align 8
  %11 = call ptr @gtk_tree_view_get_columns(ptr noundef %10)
  store ptr %11, ptr %7, align 8
  %12 = icmp ne ptr %11, null
  br i1 %12, label %14, label %13

13:                                               ; preds = %3
  store i32 1, ptr %9, align 4
  br label %47

14:                                               ; preds = %3
  %15 = load ptr, ptr %7, align 8
  store ptr %15, ptr %8, align 8
  br label %16

16:                                               ; preds = %43, %14
  %17 = load ptr, ptr %8, align 8
  %18 = icmp ne ptr %17, null
  br i1 %18, label %19, label %45

19:                                               ; preds = %16
  %20 = load ptr, ptr %8, align 8
  %21 = getelementptr inbounds nuw %struct._GList, ptr %20, i32 0, i32 0
  %22 = load ptr, ptr %21, align 8
  %23 = call i32 @gtk_tree_view_column_get_sort_column_id(ptr noundef %22)
  %24 = load i32, ptr %5, align 4
  %25 = icmp eq i32 %23, %24
  br i1 %25, label %26, label %34

26:                                               ; preds = %19
  %27 = load ptr, ptr %8, align 8
  %28 = getelementptr inbounds nuw %struct._GList, ptr %27, i32 0, i32 0
  %29 = load ptr, ptr %28, align 8
  call void @gtk_tree_view_column_set_sizing(ptr noundef %29, i32 noundef 2)
  %30 = load ptr, ptr %8, align 8
  %31 = getelementptr inbounds nuw %struct._GList, ptr %30, i32 0, i32 0
  %32 = load ptr, ptr %31, align 8
  %33 = load i32, ptr %6, align 4
  call void @gtk_tree_view_column_set_fixed_width(ptr noundef %32, i32 noundef %33)
  br label %34

34:                                               ; preds = %26, %19
  br label %35

35:                                               ; preds = %34
  %36 = load ptr, ptr %8, align 8
  %37 = icmp ne ptr %36, null
  br i1 %37, label %38, label %42

38:                                               ; preds = %35
  %39 = load ptr, ptr %8, align 8
  %40 = getelementptr inbounds nuw %struct._GList, ptr %39, i32 0, i32 1
  %41 = load ptr, ptr %40, align 8
  br label %43

42:                                               ; preds = %35
  br label %43

43:                                               ; preds = %42, %38
  %44 = phi ptr [ %41, %38 ], [ null, %42 ]
  store ptr %44, ptr %8, align 8
  br label %16, !llvm.loop !54

45:                                               ; preds = %16
  %46 = load ptr, ptr %7, align 8
  call void @g_list_free(ptr noundef %46)
  store i32 0, ptr %9, align 4
  br label %47

47:                                               ; preds = %45, %13
  call void @llvm.lifetime.end.p0(i64 8, ptr %8) #11
  call void @llvm.lifetime.end.p0(i64 8, ptr %7) #11
  %48 = load i32, ptr %9, align 4
  switch i32 %48, label %50 [
    i32 0, label %49
    i32 1, label %49
  ]

49:                                               ; preds = %47, %47
  ret void

50:                                               ; preds = %47
  unreachable
}