; Function Attrs: nounwind uwtable
define dso_local void @set_column_width_fixed(ptr noundef %0, i32 noundef %1, i32 noundef %2) local_unnamed_addr #2 {
  %4 = tail call ptr @gtk_tree_view_get_columns(ptr noundef %0) #16
  %.not = icmp eq ptr %4, null
  br i1 %.not, label %15, label %.preheader

.preheader:                                       ; preds = %3, %11
  %.012 = phi ptr [ %13, %11 ], [ %4, %3 ]
  %5 = load ptr, ptr %.012, align 8
  %6 = tail call i32 @gtk_tree_view_column_get_sort_column_id(ptr noundef %5) #16
  %7 = icmp eq i32 %6, %1
  br i1 %7, label %8, label %11

8:                                                ; preds = %.preheader
  %9 = load ptr, ptr %.012, align 8
  tail call void @gtk_tree_view_column_set_sizing(ptr noundef %9, i32 noundef 2) #16
  %10 = load ptr, ptr %.012, align 8
  tail call void @gtk_tree_view_column_set_fixed_width(ptr noundef %10, i32 noundef %2) #16
  br label %11

11:                                               ; preds = %.preheader, %8
  %12 = getelementptr inbounds nuw i8, ptr %.012, i64 8
  %13 = load ptr, ptr %12, align 8
  %.not11 = icmp eq ptr %13, null
  br i1 %.not11, label %14, label %.preheader, !llvm.loop !52

14:                                               ; preds = %11
  tail call void @g_list_free(ptr noundef nonnull %4) #16
  br label %15

15:                                               ; preds = %3, %14
  ret void
}